target datalayout = "e-m:e-p270:32:32-p271:32:32-p272:64:64-i64:64-i128:128-f80:128-n8:16:32:64-S128"
target triple = "x86_64-pc-linux-gnu"

; Function Attrs: null_pointer_is_valid sspstrong uwtable
define internal i32 @aprs_default_string(ptr noundef %0, ptr noundef %1, i32 noundef %2, i32 noundef %3, i32 noundef %4) #0 {
  %6 = alloca ptr, align 8
  %7 = alloca ptr, align 8
  %8 = alloca i32, align 4
  %9 = alloca i32, align 4
  %10 = alloca i32, align 4
  store ptr %0, ptr %6, align 8
  store ptr %1, ptr %7, align 8
  store i32 %2, ptr %8, align 4
  store i32 %3, ptr %9, align 4
  store i32 %4, ptr %10, align 4
  %11 = load i32, ptr %9, align 4
  %12 = icmp eq i32 %11, -1
  br i1 %12, label %13, label %17

13:                                               ; preds = %5
  %14 = load ptr, ptr %7, align 8
  %15 = load i32, ptr %8, align 4
  %16 = call i32 @tvb_reported_length_remaining(ptr noundef %14, i32 noundef %15)
  store i32 %16, ptr %9, align 4
  br label %17

17:                                               ; preds = %13, %5
  %18 = load ptr, ptr %6, align 8
  %19 = load i32, ptr %10, align 4
  %20 = load ptr, ptr %7, align 8
  %21 = load i32, ptr %8, align 4
  %22 = load i32, ptr %9, align 4
  %23 = call ptr @proto_tree_add_item(ptr noundef %18, i32 noundef %19, ptr noundef %20, i32 noundef %21, i32 noundef %22, i32 noundef 0)
  %24 = load i32, ptr %8, align 4
  %25 = load i32, ptr %9, align 4
  %26 = add i32 %24, %25
  ret i32 %26
}