; Function Attrs: null_pointer_is_valid sspstrong uwtable
define internal fastcc noundef i32 @aprs_default_string(ptr noundef %0, ptr noundef %1, i32 noundef %2, i32 noundef range(i32 -1, 11) %3, i32 noundef %4) unnamed_addr #0 {
  %6 = icmp eq i32 %3, -1
  br i1 %6, label %7, label %9

7:                                                ; preds = %5
  %8 = tail call i32 @tvb_reported_length_remaining(ptr noundef %1, i32 noundef %2)
  br label %9

9:                                                ; preds = %7, %5
  %.0 = phi i32 [ %8, %7 ], [ %3, %5 ]
  %10 = tail call ptr @proto_tree_add_item(ptr noundef %0, i32 noundef %4, ptr noundef %1, i32 noundef %2, i32 noundef %.0, i32 noundef 0)
  %11 = add i32 %.0, %2
  ret i32 %11
}